; ModuleID = '1/1656.c'
source_filename = "1/1656.c"
target datalayout = "e-m:e-p270:32:32-p271:32:32-p272:64:64-i64:64-f80:128-n8:16:32:64-S128"
target triple = "x86_64-pc-linux-gnu"

@.str = private unnamed_addr constant [3 x i8] c"%d\00", align 1
@.str.1 = private unnamed_addr constant [4 x i8] c"%d\0A\00", align 1
@.str.2 = private unnamed_addr constant [3 x i8] c"1\0A\00", align 1

; Function Attrs: noinline nounwind uwtable
define dso_local i32 @meide(i32 %0, i32 %1) #0 {
  %3 = alloca i32, align 4
  %4 = alloca i32, align 4
  %5 = alloca i32, align 4
  %6 = alloca i32, align 4
  %7 = alloca i32, align 4
  store i32 %0, i32* %3, align 4
  store i32 %1, i32* %4, align 4
  store i32 1, i32* %5, align 4
  store i32 0, i32* %6, align 4
  %8 = load i32, i32* %4, align 4
  store i32 %8, i32* %7, align 4
  br label %9

9:                                                ; preds = %30, %2
  %10 = load i32, i32* %7, align 4
  %11 = sitofp i32 %10 to double
  %12 = load i32, i32* %3, align 4
  %13 = sitofp i32 %12 to double
  %14 = call double @sqrt(double %13) #3
  %15 = fcmp ole double %11, %14
  br i1 %15, label %16, label %33

16:                                               ; preds = %9
  %17 = load i32, i32* %3, align 4
  %18 = load i32, i32* %7, align 4
  %19 = srem i32 %17, %18
  %20 = icmp eq i32 %19, 0
  br i1 %20, label %21, label %29

21:                                               ; preds = %16
  %22 = load i32, i32* %5, align 4
  %23 = load i32, i32* %3, align 4
  %24 = load i32, i32* %7, align 4
  %25 = sdiv i32 %23, %24
  %26 = load i32, i32* %7, align 4
  %27 = call i32 @meide(i32 %25, i32 %26)
  %28 = add nsw i32 %22, %27
  store i32 %28, i32* %5, align 4
  br label %29

29:                                               ; preds = %21, %16
  br label %30

30:                                               ; preds = %29
  %31 = load i32, i32* %7, align 4
  %32 = add nsw i32 %31, 1
  store i32 %32, i32* %7, align 4
  br label %9

33:                                               ; preds = %9
  %34 = load i32, i32* %5, align 4
  ret i32 %34
}

; Function Attrs: nounwind
declare dso_local double @sqrt(double) #1

; Function Attrs: noinline nounwind uwtable
define dso_local i32 @main() #0 {
  %1 = alloca i32, align 4
  %2 = alloca i32, align 4
  %3 = alloca i32, align 4
  %4 = alloca i32, align 4
  store i32 0, i32* %1, align 4
  %5 = call i32 (i8*, ...) @__isoc99_scanf(i8* getelementptr inbounds ([3 x i8], [3 x i8]* @.str, i64 0, i64 0), i32* %2)
  store i32 0, i32* %4, align 4
  br label %6

6:                                                ; preds = %21, %0
  %7 = load i32, i32* %4, align 4
  %8 = load i32, i32* %2, align 4
  %9 = icmp slt i32 %7, %8
  br i1 %9, label %10, label %24

10:                                               ; preds = %6
  %11 = call i32 (i8*, ...) @__isoc99_scanf(i8* getelementptr inbounds ([3 x i8], [3 x i8]* @.str, i64 0, i64 0), i32* %3)
  %12 = load i32, i32* %3, align 4
  %13 = icmp sge i32 %12, 3
  br i1 %13, label %14, label %18

14:                                               ; preds = %10
  %15 = load i32, i32* %3, align 4
  %16 = call i32 @meide(i32 %15, i32 2)
  %17 = call i32 (i8*, ...) @printf(i8* getelementptr inbounds ([4 x i8], [4 x i8]* @.str.1, i64 0, i64 0), i32 %16)
  br label %20

18:                                               ; preds = %10
  %19 = call i32 (i8*, ...) @printf(i8* getelementptr inbounds ([3 x i8], [3 x i8]* @.str.2, i64 0, i64 0))
  br label %20

20:                                               ; preds = %18, %14
  br label %21

21:                                               ; preds = %20
  %22 = load i32, i32* %4, align 4
  %23 = add nsw i32 %22, 1
  store i32 %23, i32* %4, align 4
  br label %6

24:                                               ; preds = %6
  ret i32 0
}

declare dso_local i32 @__isoc99_scanf(i8*, ...) #2

declare dso_local i32 @printf(i8*, ...) #2


!llvm.module.flags = !{!0}
!llvm.ident = !{!1}

!0 = !{i32 1, !"wchar_size", i32 4}
!1 = !{!"clang version 10.0.0-4ubuntu1 "}
