; ModuleID = 'source-C-CXX/0/1656.c'
source_filename = "source-C-CXX/0/1656.c"
target datalayout = "e-m:e-p270:32:32-p271:32:32-p272:64:64-i64:64-f80:128-n8:16:32:64-S128"
target triple = "x86_64-pc-linux-gnu"

@.str = private unnamed_addr constant [3 x i8] c"%d\00", align 1
@.str.1 = private unnamed_addr constant [4 x i8] c"%d\0A\00", align 1
@str = private unnamed_addr constant [2 x i8] c"1\00", align 1

; Function Attrs: nofree nounwind sspstrong uwtable
define dso_local i32 @meide(i32 %0, i32 %1) local_unnamed_addr #0 {
  %3 = sitofp i32 %0 to double
  %4 = sitofp i32 %1 to double
  %5 = tail call double @sqrt(double %3) #5
  %6 = fcmp ult double %5, %4
  br i1 %6, label %22, label %7

7:                                                ; preds = %2, %16
  %8 = phi i32 [ %18, %16 ], [ %1, %2 ]
  %9 = phi i32 [ %17, %16 ], [ 1, %2 ]
  %10 = srem i32 %0, %8
  %11 = sdiv i32 %0, %8
  %12 = icmp eq i32 %10, 0
  br i1 %12, label %13, label %16

13:                                               ; preds = %7
  %14 = tail call i32 @meide(i32 %11, i32 %8)
  %15 = add nsw i32 %14, %9
  br label %16

16:                                               ; preds = %7, %13
  %17 = phi i32 [ %15, %13 ], [ %9, %7 ]
  %18 = add nsw i32 %8, 1
  %19 = sitofp i32 %18 to double
  %20 = tail call double @sqrt(double %3) #5
  %21 = fcmp ult double %20, %19
  br i1 %21, label %22, label %7, !llvm.loop !5

22:                                               ; preds = %16, %2
  %23 = phi i32 [ 1, %2 ], [ %17, %16 ]
  ret i32 %23
}

; Function Attrs: argmemonly mustprogress nofree nosync nounwind willreturn
declare void @llvm.lifetime.start.p0i8(i64 immarg, i8* nocapture) #1

; Function Attrs: mustprogress nofree nounwind willreturn
declare double @sqrt(double) local_unnamed_addr #2

; Function Attrs: argmemonly mustprogress nofree nosync nounwind willreturn
declare void @llvm.lifetime.end.p0i8(i64 immarg, i8* nocapture) #1

; Function Attrs: nofree nounwind sspstrong uwtable
define dso_local i32 @main() local_unnamed_addr #0 {
  %1 = alloca i32, align 4
  %2 = alloca i32, align 4
  %3 = bitcast i32* %1 to i8*
  call void @llvm.lifetime.start.p0i8(i64 4, i8* nonnull %3) #5
  %4 = bitcast i32* %2 to i8*
  call void @llvm.lifetime.start.p0i8(i64 4, i8* nonnull %4) #5
  %5 = call i32 (i8*, ...) @__isoc99_scanf(i8* getelementptr inbounds ([3 x i8], [3 x i8]* @.str, i64 0, i64 0), i32* nonnull %1)
  %6 = load i32, i32* %1, align 4, !tbaa !7
  %7 = icmp sgt i32 %6, 0
  br i1 %7, label %8, label %22

8:                                                ; preds = %0, %18
  %9 = phi i32 [ %19, %18 ], [ 0, %0 ]
  %10 = call i32 (i8*, ...) @__isoc99_scanf(i8* getelementptr inbounds ([3 x i8], [3 x i8]* @.str, i64 0, i64 0), i32* nonnull %2)
  %11 = load i32, i32* %2, align 4, !tbaa !7
  %12 = icmp sgt i32 %11, 2
  br i1 %12, label %13, label %16

13:                                               ; preds = %8
  %14 = call i32 @meide(i32 %11, i32 2)
  %15 = call i32 (i8*, ...) @printf(i8* nonnull dereferenceable(1) getelementptr inbounds ([4 x i8], [4 x i8]* @.str.1, i64 0, i64 0), i32 %14)
  br label %18

16:                                               ; preds = %8
  %17 = call i32 @puts(i8* nonnull dereferenceable(1) getelementptr inbounds ([2 x i8], [2 x i8]* @str, i64 0, i64 0))
  br label %18

18:                                               ; preds = %13, %16
  %19 = add nuw nsw i32 %9, 1
  %20 = load i32, i32* %1, align 4, !tbaa !7
  %21 = icmp slt i32 %19, %20
  br i1 %21, label %8, label %22, !llvm.loop !11

22:                                               ; preds = %18, %0
  call void @llvm.lifetime.end.p0i8(i64 4, i8* nonnull %4) #5
  call void @llvm.lifetime.end.p0i8(i64 4, i8* nonnull %3) #5
  ret i32 0
}

; Function Attrs: nofree nounwind
declare noundef i32 @__isoc99_scanf(i8* nocapture noundef readonly, ...) local_unnamed_addr #3

; Function Attrs: nofree nounwind
declare noundef i32 @printf(i8* nocapture noundef readonly, ...) local_unnamed_addr #3

; Function Attrs: nofree nounwind
declare noundef i32 @puts(i8* nocapture noundef readonly) local_unnamed_addr #4


!llvm.module.flags = !{!0, !1, !2, !3}
!llvm.ident = !{!4}

!0 = !{i32 1, !"wchar_size", i32 4}
!1 = !{i32 7, !"PIC Level", i32 2}
!2 = !{i32 7, !"PIE Level", i32 2}
!3 = !{i32 7, !"uwtable", i32 1}
!4 = !{!"clang version 13.0.0"}
!5 = distinct !{!5, !6}
!6 = !{!"llvm.loop.mustprogress"}
!7 = !{!8, !8, i64 0}
!8 = !{!"int", !9, i64 0}
!9 = !{!"omnipotent char", !10, i64 0}
!10 = !{!"Simple C/C++ TBAA"}
!11 = distinct !{!11, !6}
